; Function Attrs: nounwind uwtable
define range(i32 -22, 1) i32 @IDAGetConsistentIC(ptr noundef %0, ptr noundef %1, ptr noundef %2) local_unnamed_addr #0 {
  %4 = icmp eq ptr %0, null
  br i1 %4, label %5, label %6

5:                                                ; preds = %3
  tail call void (ptr, i32, i32, ptr, ptr, ptr, ...) @IDAProcessError(ptr noundef null, i32 noundef -20, i32 noundef 1210, ptr noundef nonnull @__func__.IDAGetConsistentIC, ptr noundef nonnull @.str, ptr noundef nonnull @.str.1) #9
  br label %18

6:                                                ; preds = %3
  %7 = getelementptr inbounds nuw i8, ptr %0, i64 1212
  %8 = load i32, ptr %7, align 4
  %.not = icmp eq i32 %8, 0
  br i1 %.not, label %10, label %9

9:                                                ; preds = %6
  tail call void (ptr, i32, i32, ptr, ptr, ptr, ...) @IDAProcessError(ptr noundef nonnull %0, i32 noundef -22, i32 noundef 1218, ptr noundef nonnull @__func__.IDAGetConsistentIC, ptr noundef nonnull @.str, ptr noundef nonnull @.str.24) #9
  br label %18

10:                                               ; preds = %6
  %.not13 = icmp eq ptr %1, null
  br i1 %.not13, label %14, label %11

11:                                               ; preds = %10
  %12 = getelementptr inbounds nuw i8, ptr %0, i64 344
  %13 = load ptr, ptr %12, align 8
  tail call void @N_VScale(double noundef 1.000000e+00, ptr noundef %13, ptr noundef nonnull %1) #9
  br label %14

14:                                               ; preds = %11, %10
  %.not14 = icmp eq ptr %2, null
  br i1 %.not14, label %18, label %15

15:                                               ; preds = %14
  %16 = getelementptr inbounds nuw i8, ptr %0, i64 352
  %17 = load ptr, ptr %16, align 8
  tail call void @N_VScale(double noundef 1.000000e+00, ptr noundef %17, ptr noundef nonnull %2) #9
  br label %18

18:                                               ; preds = %14, %15, %9, %5
  %.0 = phi i32 [ -20, %5 ], [ -22, %9 ], [ 0, %15 ], [ 0, %14 ]
  ret i32 %.0
}